target datalayout = "e-m:e-p270:32:32-p271:32:32-p272:64:64-i64:64-i128:128-f80:128-n8:16:32:64-S128"
target triple = "x86_64-unknown-linux-gnu"

%"class.sat::literal" = type { i32 }
%"class.sat::use_list" = type { %class.vector }
%class.vector = type { ptr }
%class.ptr_vector = type { %class.vector.0 }
%class.vector.0 = type { ptr }
%class.approx_set_tpl = type { i32 }
%"class.sat::simplifier" = type { ptr, i32, %"class.sat::use_list", %"class.sat::ext_use_list", %"class.sat::clause_set", %class.svector.3, i32, %class.tracked_uint_set, i8, %"class.sat::tmp_clause", %class.svector.5, i32, i32, i8, i8, i8, i8, i32, i8, i8, i32, i8, i32, i8, i8, i32, i32, i32, i32, i32, i32, i32, i32, i32, i32, i8, i32, i8, i8, i32, i32, i32, i32, i32, i32, i32, i32, i32, i32, i32, i8, i32, %class.ptr_vector, %class.svector.7, %class.svector.9, %class.svector.9, %class.svector.7 }
%"class.sat::ext_use_list" = type { %class.vector.1 }
%class.vector.1 = type { ptr }
%"class.sat::clause_set" = type { %class.svector, %class.ptr_vector }
%class.svector = type { %class.vector.2 }
%class.vector.2 = type { ptr }
%class.svector.3 = type { %class.vector.4 }
%class.vector.4 = type { ptr }
%class.tracked_uint_set = type { %class.svector.5, %class.svector }
%"class.sat::tmp_clause" = type { ptr }
%class.svector.5 = type { %class.vector.6 }
%class.vector.6 = type { ptr }
%class.svector.9 = type { %class.vector.10 }
%class.vector.10 = type { ptr }
%class.svector.7 = type { %class.vector.8 }
%class.vector.8 = type { ptr }
%class.params_ref = type { ptr }
%"struct.sat::config" = type <{ i64, i32, i32, i32, i8, [3 x i8], i32, i32, double, i32, i8, [3 x i8], i32, i8, [3 x i8], i32, [4 x i8], double, double, i32, i32, double, double, i32, [4 x i8], %class.symbol, double, i32, i32, i8, [3 x i8], i32, i32, i8, [3 x i8], i32, i8, [3 x i8], i32, i8, [3 x i8], i32, i8, i8, i8, i8, i32, i8, i8, i8, i8, i8, i8, i8, i8, i32, i8, i8, i8, i8, i32, double, i32, [4 x i8], double, double, double, double, i32, i8, i8, [2 x i8], double, i8, i8, [2 x i8], i32, double, i32, i32, i32, i32, i32, i32, i32, i32, i8, i8, i8, i8, i32, i32, i8, i8, i8, i8, i8, i8, i8, [5 x i8], %class.symbol, i8, i8, i8, i8, i8, i8, [2 x i8], i32, i32, i32, i8, [3 x i8], double, double, double, double, double, i8, [7 x i8] }>
%class.symbol = type { ptr }
%"class.sat::solver" = type { %"class.sat::solver_core", i8, [7 x i8], %"struct.sat::config", %"struct.sat::stats", %class.scoped_ptr, %class.scoped_ptr.11, ptr, %"class.sat::drat", [2 x %"class.sat::clause_allocator"], i8, %class.random_gen, %"class.sat::cleaner", %class.svector.23, %"class.sat::model_converter", i8, %"class.sat::simplifier", %"class.sat::scc", %"class.sat::asymm_branch", %"class.sat::probing", i8, [7 x i8], %"class.sat::mus", %"class.sat::binspr", i8, i8, [6 x i8], %"class.sat::justification", %"class.sat::literal", %class.ptr_vector, %class.ptr_vector, i32, %class.svector, %class.svector, %class.svector, %class.svector, %class.vector.40, %class.svector.23, %class.svector.41, %class.svector.26, %class.svector.26, %class.svector.26, %class.svector.26, %class.svector.26, %class.svector, %class.svector, i32, %class.svector.7, %class.svector, i32, %class.svector.43, %class.svector.43, %class.svector.43, %class.svector.43, %class.svector.43, i32, double, %class.svector.26, %class.svector.26, %class.svector.26, %class.svector.5, i32, i32, i32, i32, i32, i32, %"struct.sat::backoff", i32, i32, %"struct.sat::backoff", %"struct.sat::backoff", %class.var_queue, i32, i32, i32, %class.ema, %class.ema, %class.ema, %class.ema, %class.ema, %class.svector.7, %class.svector.9, %"class.std::__cxx11::basic_string", i8, %class.visit_helper, %class.svector.45, %class.scoped_limit_trail, %class.stopwatch, %class.params_ref, %"struct.sat::no_drat_params", %class.scoped_ptr.38, %class.svector.7, %"class.sat::literal_set", %"class.sat::literal_set", %class.svector.7, i32, i32, i32, i32, i8, ptr, ptr, %class.statistics, i32, i32, i32, i32, i8, i32, i32, i32, i32, i32, i32, i32, double, i32, double, i8, i8, %class.svector.7, i8, %class.svector.43, i32, i32, i32, %class.svector.7, %class.svector.7, %class.svector.5, %class.svector, %class.approx_set_tpl, %class.svector.7, %class.svector.7, %class.vector.22, %class.svector.7, %class.svector.36, %class.u_map, %class.svector.7 }
%"class.sat::solver_core" = type { ptr, ptr }
%"struct.sat::stats" = type { i32, i32, i32, i32, i32, i32, i32, i32, i32, i32, i32, i32, i32, i32, i32, i32, i32, i32, i32, i32, i32 }
%class.scoped_ptr = type { ptr }
%class.scoped_ptr.11 = type { ptr }
%"class.sat::drat" = type { ptr, %class.svector.12, ptr, %"class.sat::clause_allocator", ptr, ptr, %class.svector.18, %class.svector.20, %class.vector.22, %class.svector.23, i8, i8, i8, i8, i8, %"struct.sat::drat::stats" }
%class.svector.12 = type { %class.vector.13 }
%class.vector.13 = type { ptr }
%"class.sat::clause_allocator" = type { %class.sat_allocator, %class.id_gen }
%class.sat_allocator = type { ptr, i64, %class.ptr_vector.14, ptr, [65 x %class.ptr_vector.16] }
%class.ptr_vector.14 = type { %class.vector.15 }
%class.vector.15 = type { ptr }
%class.ptr_vector.16 = type { %class.vector.17 }
%class.vector.17 = type { ptr }
%class.id_gen = type { i32, %class.svector }
%class.svector.18 = type { %class.vector.19 }
%class.vector.19 = type { ptr }
%class.svector.20 = type { %class.vector.21 }
%class.vector.21 = type { ptr }
%"struct.sat::drat::stats" = type { i32, i32, i32, i32 }
%class.random_gen = type { i32 }
%"class.sat::cleaner" = type { ptr, i32, i32, i32, i32 }
%"class.sat::model_converter" = type { %class.vector.25, i32, %class.svector.26, ptr, %class.svector.28 }
%class.vector.25 = type { ptr }
%class.svector.28 = type { %class.vector.29 }
%class.vector.29 = type { ptr }
%"class.sat::scc" = type { ptr, i8, i8, i32, i32, %"class.sat::big" }
%"class.sat::big" = type { ptr, i32, %class.vector.30, %class.svector.26, %class.svector.31, %class.svector.31, %class.svector.7, %class.svector.7, i8, i8, %class.vector.30 }
%class.svector.31 = type { %class.vector.32 }
%class.vector.32 = type { ptr }
%class.vector.30 = type { ptr }
%"class.sat::asymm_branch" = type { ptr, %class.params_ref, i64, %class.random_gen, i32, i32, i8, i32, i32, i8, i8, i64, i32, i32, i32, %class.svector.7, %class.svector.7, %class.svector.33, %class.svector.33, %class.svector.7, %class.svector.7 }
%class.svector.33 = type { %class.vector.34 }
%class.vector.34 = type { ptr }
%"class.sat::probing" = type { ptr, i32, %"class.sat::literal_set", %class.svector.7, i32, i8, i32, i8, i8, i64, i32, %class.vector.35, %class.svector.36, %"class.sat::big" }
%class.vector.35 = type { ptr }
%"class.sat::mus" = type <{ ptr, %class.svector.7, %class.svector.7, i8, [7 x i8], %class.svector.23, i32, [4 x i8] }>
%"class.sat::binspr" = type <{ ptr, %class.scoped_ptr.38, i32, i32, %class.vector.39, i32, i32, %class.svector.26, %class.svector.26, %class.svector.7, %class.svector.7, i32, i32, i32, i32, i32, [4 x i32], [5 x i32], [5 x i32], [4 x i8] }>
%class.vector.39 = type { ptr }
%"class.sat::justification" = type <{ i32, [4 x i8], i64, i32, [4 x i8] }>
%class.vector.40 = type { ptr }
%class.svector.23 = type { %class.vector.24 }
%class.vector.24 = type { ptr }
%class.svector.41 = type { %class.vector.42 }
%class.vector.42 = type { ptr }
%class.svector.26 = type { %class.vector.27 }
%class.vector.27 = type { ptr }
%"struct.sat::backoff" = type { i32, i32, i32, i32, i32 }
%class.var_queue = type { %class.heap }
%class.heap = type { %"struct.var_queue<svector<unsigned int>>::lt", %class.svector.31, %class.svector.31 }
%"struct.var_queue<svector<unsigned int>>::lt" = type { ptr }
%class.ema = type { double, double, double, i32, i32 }
%"class.std::__cxx11::basic_string" = type { %"struct.std::__cxx11::basic_string<char>::_Alloc_hider", i64, %union.anon }
%"struct.std::__cxx11::basic_string<char>::_Alloc_hider" = type { ptr }
%union.anon = type { i64, [8 x i8] }
%class.visit_helper = type { %class.svector, i32, i32 }
%class.svector.45 = type { %class.vector.46 }
%class.vector.46 = type { ptr }
%class.scoped_limit_trail = type { %class.svector, i32, i32 }
%class.stopwatch = type <{ %"class.std::chrono::time_point", %"class.std::chrono::duration", i8, [7 x i8] }>
%"class.std::chrono::time_point" = type { %"class.std::chrono::duration" }
%"class.std::chrono::duration" = type { i64 }
%"struct.sat::no_drat_params" = type { %class.params_ref }
%class.scoped_ptr.38 = type { ptr }
%"class.sat::literal_set" = type { %class.tracked_uint_set }
%class.statistics = type { %class.svector.47, %class.svector.49 }
%class.svector.47 = type { %class.vector.48 }
%class.vector.48 = type { ptr }
%class.svector.49 = type { %class.vector.50 }
%class.vector.50 = type { ptr }
%class.svector.43 = type { %class.vector.44 }
%class.vector.44 = type { ptr }
%class.vector.22 = type { ptr }
%class.svector.36 = type { %class.vector.37 }
%class.vector.37 = type { ptr }
%class.u_map = type { %class.map }
%class.map = type { %class.table2map }
%class.table2map = type { %class.core_hashtable }
%class.core_hashtable = type <{ ptr, i32, i32, i32, [4 x i8] }>
%"struct.sat::simplifier::blocked_cls_report" = type { ptr, %class.stopwatch, i32, i32, i32, i32, i32, i32 }
%"struct.sat::simplifier::blocked_clause_elim" = type <{ ptr, i32, [4 x i8], ptr, %"class.sat::simplifier::blocked_clause_elim::queue", %class.svector.7, %class.svector.53, %class.svector.7, %class.svector.7, %class.svector.7, %class.svector.26, i32, [4 x i8], %"class.sat::clause_wrapper", i32, i32, i32, [4 x i8] }>
%"class.sat::simplifier::blocked_clause_elim::queue" = type { %class.heap.52 }
%class.heap.52 = type { %"class.sat::simplifier::blocked_clause_elim::literal_lt", %class.svector.31, %class.svector.31 }
%"class.sat::simplifier::blocked_clause_elim::literal_lt" = type { ptr, ptr }
%class.svector.53 = type { %class.vector.54 }
%class.vector.54 = type { ptr }
%"class.sat::clause_wrapper" = type <{ %union.anon.55, i32, [4 x i8] }>
%union.anon.55 = type { ptr }

; Function Attrs: noreturn nounwind uwtable
define linkonce_odr hidden void @__clang_call_terminate(ptr noundef %0) #7 comdat {
  %2 = call ptr @__cxa_begin_catch(ptr %0) #3
  call void @_ZSt9terminatev() #15
  unreachable
}

; Function Attrs: mustprogress nounwind uwtable
define linkonce_odr hidden void @_ZNSt6chrono8durationIlSt5ratioILl1ELl1000000000EEEC2IlvEERKT_(ptr noundef nonnull align 8 dereferenceable(8) %this, ptr noundef nonnull align 8 dereferenceable(8) %__rep) unnamed_addr #4 comdat align 2 {
entry:
  %this.addr = alloca ptr, align 8
  %__rep.addr = alloca ptr, align 8
  store ptr %this, ptr %this.addr, align 8
  store ptr %__rep, ptr %__rep.addr, align 8
  %this1 = load ptr, ptr %this.addr, align 8
  %__r = getelementptr inbounds %"class.std::chrono::duration", ptr %this1, i32 0, i32 0
  %0 = load ptr, ptr %__rep.addr, align 8
  %1 = load i64, ptr %0, align 8
  store i64 %1, ptr %__r, align 8
  ret void
}

; Function Attrs: mustprogress nounwind uwtable
define linkonce_odr hidden noundef i64 @_ZNSt6chrono15duration_valuesIlE4zeroEv() #4 comdat align 2 {
entry:
  ret i64 0
}

; Function Attrs: mustprogress nounwind uwtable
define linkonce_odr hidden i64 @_ZNSt6chrono8durationIlSt5ratioILl1ELl1000000000EEE4zeroEv() #4 comdat align 2 personality ptr @__gxx_personality_v0 {
entry:
  %retval = alloca %"class.std::chrono::duration", align 8
  %ref.tmp = alloca i64, align 8
  %call = call noundef i64 @_ZNSt6chrono15duration_valuesIlE4zeroEv() #3
  store i64 %call, ptr %ref.tmp, align 8
  invoke void @_ZNSt6chrono8durationIlSt5ratioILl1ELl1000000000EEEC2IlvEERKT_(ptr noundef nonnull align 8 dereferenceable(8) %retval, ptr noundef nonnull align 8 dereferenceable(8) %ref.tmp)
          to label %invoke.cont unwind label %terminate.lpad

invoke.cont:                                      ; preds = %entry
  %coerce.dive = getelementptr inbounds %"class.std::chrono::duration", ptr %retval, i32 0, i32 0
  %0 = load i64, ptr %coerce.dive, align 8
  ret i64 %0

terminate.lpad:                                   ; preds = %entry
  %1 = landingpad { ptr, i32 }
          catch ptr null
  %2 = extractvalue { ptr, i32 } %1, 0
  call void @__clang_call_terminate(ptr %2) #15
  unreachable
}

; Function Attrs: mustprogress nounwind uwtable
define linkonce_odr hidden i64 @_ZN9stopwatch3getEv() #4 comdat align 2 {
entry:
  %retval = alloca %"class.std::chrono::time_point", align 8
  %call = call i64 @_ZNSt6chrono3_V212steady_clock3nowEv() #3
  %coerce.dive = getelementptr inbounds %"class.std::chrono::time_point", ptr %retval, i32 0, i32 0
  %coerce.dive1 = getelementptr inbounds %"class.std::chrono::duration", ptr %coerce.dive, i32 0, i32 0
  store i64 %call, ptr %coerce.dive1, align 8
  %coerce.dive2 = getelementptr inbounds %"class.std::chrono::time_point", ptr %retval, i32 0, i32 0
  %coerce.dive3 = getelementptr inbounds %"class.std::chrono::duration", ptr %coerce.dive2, i32 0, i32 0
  %0 = load i64, ptr %coerce.dive3, align 8
  ret i64 %0
}

; Function Attrs: mustprogress nounwind uwtable
define linkonce_odr hidden void @_ZN9stopwatch5resetEv(ptr noundef nonnull align 8 dereferenceable(17) %this) #4 comdat align 2 {
entry:
  %this.addr = alloca ptr, align 8
  %ref.tmp = alloca %"class.std::chrono::duration", align 8
  store ptr %this, ptr %this.addr, align 8
  %this1 = load ptr, ptr %this.addr, align 8
  %call = call i64 @_ZNSt6chrono8durationIlSt5ratioILl1ELl1000000000EEE4zeroEv() #3
  %coerce.dive = getelementptr inbounds %"class.std::chrono::duration", ptr %ref.tmp, i32 0, i32 0
  store i64 %call, ptr %coerce.dive, align 8
  %m_elapsed = getelementptr inbounds %class.stopwatch, ptr %this1, i32 0, i32 1
  call void @llvm.memcpy.p0.p0.i64(ptr align 8 %m_elapsed, ptr align 8 %ref.tmp, i64 8, i1 false)
  ret void
}

; Function Attrs: mustprogress nounwind uwtable
define linkonce_odr hidden void @_ZNSt6chrono10time_pointINS_3_V212steady_clockENS_8durationIlSt5ratioILl1ELl1000000000EEEEEC2Ev(ptr noundef nonnull align 8 dereferenceable(8) %this) unnamed_addr #4 comdat align 2 {
entry:
  %this.addr = alloca ptr, align 8
  store ptr %this, ptr %this.addr, align 8
  %this1 = load ptr, ptr %this.addr, align 8
  %__d = getelementptr inbounds %"class.std::chrono::time_point", ptr %this1, i32 0, i32 0
  %call = call i64 @_ZNSt6chrono8durationIlSt5ratioILl1ELl1000000000EEE4zeroEv() #3
  %coerce.dive = getelementptr inbounds %"class.std::chrono::duration", ptr %__d, i32 0, i32 0
  store i64 %call, ptr %coerce.dive, align 8
  ret void
}

; Function Attrs: mustprogress uwtable
define linkonce_odr hidden void @_ZN9stopwatch5startEv(ptr noundef nonnull align 8 dereferenceable(17) %this) #5 comdat align 2 {
entry:
  %this.addr = alloca ptr, align 8
  %ref.tmp = alloca %"class.std::chrono::time_point", align 8
  store ptr %this, ptr %this.addr, align 8
  %this1 = load ptr, ptr %this.addr, align 8
  %m_running = getelementptr inbounds %class.stopwatch, ptr %this1, i32 0, i32 2
  %0 = load i8, ptr %m_running, align 8
  %tobool = trunc i8 %0 to i1
  br i1 %tobool, label %if.end, label %if.then

if.then:                                          ; preds = %entry
  %call = call i64 @_ZN9stopwatch3getEv()
  %coerce.dive = getelementptr inbounds %"class.std::chrono::time_point", ptr %ref.tmp, i32 0, i32 0
  %coerce.dive2 = getelementptr inbounds %"class.std::chrono::duration", ptr %coerce.dive, i32 0, i32 0
  store i64 %call, ptr %coerce.dive2, align 8
  %m_start = getelementptr inbounds %class.stopwatch, ptr %this1, i32 0, i32 0
  call void @llvm.memcpy.p0.p0.i64(ptr align 8 %m_start, ptr align 8 %ref.tmp, i64 8, i1 false)
  %m_running3 = getelementptr inbounds %class.stopwatch, ptr %this1, i32 0, i32 2
  store i8 1, ptr %m_running3, align 8
  br label %if.end

if.end:                                           ; preds = %if.then, %entry
  ret void
}

; Function Attrs: mustprogress uwtable
define linkonce_odr hidden void @_ZN9stopwatchC2Ev(ptr noundef nonnull align 8 dereferenceable(17) %this) unnamed_addr #5 comdat align 2 {
entry:
  %this.addr = alloca ptr, align 8
  store ptr %this, ptr %this.addr, align 8
  %this1 = load ptr, ptr %this.addr, align 8
  %m_start = getelementptr inbounds %class.stopwatch, ptr %this1, i32 0, i32 0
  call void @_ZNSt6chrono10time_pointINS_3_V212steady_clockENS_8durationIlSt5ratioILl1ELl1000000000EEEEEC2Ev(ptr noundef nonnull align 8 dereferenceable(8) %m_start)
  %m_running = getelementptr inbounds %class.stopwatch, ptr %this1, i32 0, i32 2
  store i8 0, ptr %m_running, align 8
  call void @_ZN9stopwatch5resetEv(ptr noundef nonnull align 8 dereferenceable(17) %this1)
  ret void
}

; Function Attrs: mustprogress uwtable
define linkonce_odr hidden void @_ZN3sat10simplifier18blocked_cls_reportC2ERS0_(ptr noundef nonnull align 8 dereferenceable(56) %this, ptr noundef nonnull align 8 dereferenceable(288) %s) unnamed_addr #5 comdat align 2 {
entry:
  %this.addr = alloca ptr, align 8
  %s.addr = alloca ptr, align 8
  store ptr %this, ptr %this.addr, align 8
  store ptr %s, ptr %s.addr, align 8
  %this1 = load ptr, ptr %this.addr, align 8
  %m_simplifier = getelementptr inbounds %"struct.sat::simplifier::blocked_cls_report", ptr %this1, i32 0, i32 0
  %0 = load ptr, ptr %s.addr, align 8
  store ptr %0, ptr %m_simplifier, align 8
  %m_watch = getelementptr inbounds %"struct.sat::simplifier::blocked_cls_report", ptr %this1, i32 0, i32 1
  call void @_ZN9stopwatchC2Ev(ptr noundef nonnull align 8 dereferenceable(17) %m_watch)
  %m_num_bce = getelementptr inbounds %"struct.sat::simplifier::blocked_cls_report", ptr %this1, i32 0, i32 2
  %1 = load ptr, ptr %s.addr, align 8
  %m_num_bce2 = getelementptr inbounds %"class.sat::simplifier", ptr %1, i32 0, i32 40
  %2 = load i32, ptr %m_num_bce2, align 4
  store i32 %2, ptr %m_num_bce, align 8
  %m_num_cce = getelementptr inbounds %"struct.sat::simplifier::blocked_cls_report", ptr %this1, i32 0, i32 3
  %3 = load ptr, ptr %s.addr, align 8
  %m_num_cce3 = getelementptr inbounds %"class.sat::simplifier", ptr %3, i32 0, i32 41
  %4 = load i32, ptr %m_num_cce3, align 8
  store i32 %4, ptr %m_num_cce, align 4
  %m_num_acce = getelementptr inbounds %"struct.sat::simplifier::blocked_cls_report", ptr %this1, i32 0, i32 4
  %5 = load ptr, ptr %s.addr, align 8
  %m_num_acce4 = getelementptr inbounds %"class.sat::simplifier", ptr %5, i32 0, i32 42
  %6 = load i32, ptr %m_num_acce4, align 4
  store i32 %6, ptr %m_num_acce, align 8
  %m_num_abce = getelementptr inbounds %"struct.sat::simplifier::blocked_cls_report", ptr %this1, i32 0, i32 5
  %7 = load ptr, ptr %s.addr, align 8
  %m_num_abce5 = getelementptr inbounds %"class.sat::simplifier", ptr %7, i32 0, i32 43
  %8 = load i32, ptr %m_num_abce5, align 8
  store i32 %8, ptr %m_num_abce, align 4
  %m_num_ate = getelementptr inbounds %"struct.sat::simplifier::blocked_cls_report", ptr %this1, i32 0, i32 6
  %9 = load ptr, ptr %s.addr, align 8
  %m_num_ate6 = getelementptr inbounds %"class.sat::simplifier", ptr %9, i32 0, i32 45
  %10 = load i32, ptr %m_num_ate6, align 8
  store i32 %10, ptr %m_num_ate, align 8
  %m_num_bca = getelementptr inbounds %"struct.sat::simplifier::blocked_cls_report", ptr %this1, i32 0, i32 7
  %11 = load ptr, ptr %s.addr, align 8
  %m_num_bca7 = getelementptr inbounds %"class.sat::simplifier", ptr %11, i32 0, i32 44
  %12 = load i32, ptr %m_num_bca7, align 4
  store i32 %12, ptr %m_num_bca, align 4
  %m_watch8 = getelementptr inbounds %"struct.sat::simplifier::blocked_cls_report", ptr %this1, i32 0, i32 1
  call void @_ZN9stopwatch5startEv(ptr noundef nonnull align 8 dereferenceable(17) %m_watch8)
  ret void
}

; Function Attrs: mustprogress uwtable
define hidden void @_ZN3sat10simplifier20elim_blocked_clausesEv(ptr noundef nonnull align 8 dereferenceable(288) %this) #5 align 2 personality ptr @__gxx_personality_v0 {
entry:
  %this.addr = alloca ptr, align 8
  %rpt = alloca %"struct.sat::simplifier::blocked_cls_report", align 8
  %elim = alloca %"struct.sat::simplifier::blocked_clause_elim", align 8
  %exn.slot = alloca ptr, align 8
  %ehselector.slot = alloca i32, align 4
  store ptr %this, ptr %this.addr, align 8
  %this1 = load ptr, ptr %this.addr, align 8
  call void @_ZN3sat10simplifier18blocked_cls_reportC2ERS0_(ptr noundef nonnull align 8 dereferenceable(56) %rpt, ptr noundef nonnull align 8 dereferenceable(288) %this1)
  %m_blocked_clause_limit = getelementptr inbounds %"class.sat::simplifier", ptr %this1, i32 0, i32 22
  %0 = load i32, ptr %m_blocked_clause_limit, align 4
  %s = getelementptr inbounds %"class.sat::simplifier", ptr %this1, i32 0, i32 0
  %1 = load ptr, ptr %s, align 8
  %m_mc = getelementptr inbounds %"class.sat::solver", ptr %1, i32 0, i32 14
  %m_use_list = getelementptr inbounds %"class.sat::simplifier", ptr %this1, i32 0, i32 2
  %s2 = getelementptr inbounds %"class.sat::simplifier", ptr %this1, i32 0, i32 0
  %2 = load ptr, ptr %s2, align 8
  %m_watches = getelementptr inbounds %"class.sat::solver", ptr %2, i32 0, i32 36
  invoke void @_ZN3sat10simplifier19blocked_clause_elimC2ERS0_jRNS_15model_converterERNS_8use_listER6vectorIS7_INS_7watchedELb1EjELb1EjE(ptr noundef nonnull align 8 dereferenceable(140) %elim, ptr noundef nonnull align 8 dereferenceable(288) %this1, i32 noundef %0, ptr noundef nonnull align 8 dereferenceable(40) %m_mc, ptr noundef nonnull align 8 dereferenceable(8) %m_use_list, ptr noundef nonnull align 8 dereferenceable(8) %m_watches)
          to label %invoke.cont unwind label %lpad

invoke.cont:                                      ; preds = %entry
  invoke void @_ZN3sat10simplifier19blocked_clause_elimclEv(ptr noundef nonnull align 8 dereferenceable(140) %elim)
          to label %invoke.cont4 unwind label %lpad3

invoke.cont4:                                     ; preds = %invoke.cont
  call void @_ZN3sat10simplifier19blocked_clause_elimD2Ev(ptr noundef nonnull align 8 dereferenceable(140) %elim) #3
  call void @_ZN3sat10simplifier18blocked_cls_reportD2Ev(ptr noundef nonnull align 8 dereferenceable(56) %rpt) #3
  ret void

lpad:                                             ; preds = %entry
  %3 = landingpad { ptr, i32 }
          cleanup
  %4 = extractvalue { ptr, i32 } %3, 0
  store ptr %4, ptr %exn.slot, align 8
  %5 = extractvalue { ptr, i32 } %3, 1
  store i32 %5, ptr %ehselector.slot, align 4
  br label %ehcleanup

lpad3:                                            ; preds = %invoke.cont
  %6 = landingpad { ptr, i32 }
          cleanup
  %7 = extractvalue { ptr, i32 } %6, 0
  store ptr %7, ptr %exn.slot, align 8
  %8 = extractvalue { ptr, i32 } %6, 1
  store i32 %8, ptr %ehselector.slot, align 4
  call void @_ZN3sat10simplifier19blocked_clause_elimD2Ev(ptr noundef nonnull align 8 dereferenceable(140) %elim) #3
  br label %ehcleanup

ehcleanup:                                        ; preds = %lpad3, %lpad
  call void @_ZN3sat10simplifier18blocked_cls_reportD2Ev(ptr noundef nonnull align 8 dereferenceable(56) %rpt) #3
  br label %eh.resume

eh.resume:                                        ; preds = %ehcleanup
  %exn = load ptr, ptr %exn.slot, align 8
  %sel = load i32, ptr %ehselector.slot, align 4
  %lpad.val = insertvalue { ptr, i32 } poison, ptr %exn, 0
  %lpad.val5 = insertvalue { ptr, i32 } %lpad.val, i32 %sel, 1
  resume { ptr, i32 } %lpad.val5
}