; Function Attrs: mustprogress uwtable
define hidden void @_ZN3sat10simplifier20elim_blocked_clausesEv(ptr noundef nonnull align 8 dereferenceable(288) %this) local_unnamed_addr #3 align 2 personality ptr @__gxx_personality_v0 {
entry:
  %rpt = alloca %"struct.sat::simplifier::blocked_cls_report", align 8
  %elim = alloca %"struct.sat::simplifier::blocked_clause_elim", align 8
  store ptr %this, ptr %rpt, align 8
  %m_watch.i = getelementptr inbounds i8, ptr %rpt, i64 8
  %0 = getelementptr inbounds i8, ptr %rpt, i64 16
  store i64 0, ptr %0, align 8
  %m_num_bce.i = getelementptr inbounds i8, ptr %rpt, i64 32
  %m_num_bce2.i = getelementptr inbounds i8, ptr %this, i64 196
  %1 = load <4 x i32>, ptr %m_num_bce2.i, align 4
  store <4 x i32> %1, ptr %m_num_bce.i, align 8
  %m_num_ate.i = getelementptr inbounds i8, ptr %rpt, i64 48
  %m_num_bca7.i = getelementptr inbounds i8, ptr %this, i64 212
  %2 = load <2 x i32>, ptr %m_num_bca7.i, align 4
  %3 = shufflevector <2 x i32> %2, <2 x i32> poison, <2 x i32> <i32 1, i32 0>
  store <2 x i32> %3, ptr %m_num_ate.i, align 8
  %m_running.i.i = getelementptr inbounds i8, ptr %rpt, i64 24
  %call.i.i.i = tail call i64 @_ZNSt6chrono3_V212steady_clock3nowEv() #22
  store i64 %call.i.i.i, ptr %m_watch.i, align 8
  store i8 1, ptr %m_running.i.i, align 8
  %m_blocked_clause_limit = getelementptr inbounds i8, ptr %this, i64 132
  %4 = load i32, ptr %m_blocked_clause_limit, align 4
  %5 = load ptr, ptr %this, align 8
  %m_mc = getelementptr inbounds i8, ptr %5, i64 2392
  %m_use_list = getelementptr inbounds i8, ptr %this, i64 16
  %m_watches = getelementptr inbounds i8, ptr %5, i64 3432
  invoke void @_ZN3sat10simplifier19blocked_clause_elimC2ERS0_jRNS_15model_converterERNS_8use_listER6vectorIS7_INS_7watchedELb1EjELb1EjE(ptr noundef nonnull align 8 dereferenceable(140) %elim, ptr noundef nonnull align 8 dereferenceable(288) %this, i32 noundef %4, ptr noundef nonnull align 8 dereferenceable(40) %m_mc, ptr noundef nonnull align 8 dereferenceable(8) %m_use_list, ptr noundef nonnull align 8 dereferenceable(8) %m_watches)
          to label %invoke.cont unwind label %lpad

invoke.cont:                                      ; preds = %entry
  invoke void @_ZN3sat10simplifier19blocked_clause_elimclEv(ptr noundef nonnull align 8 dereferenceable(140) %elim)
          to label %invoke.cont4 unwind label %lpad3

invoke.cont4:                                     ; preds = %invoke.cont
  call void @_ZN3sat10simplifier19blocked_clause_elimD2Ev(ptr noundef nonnull align 8 dereferenceable(140) %elim) #22
  call void @_ZN3sat10simplifier18blocked_cls_reportD2Ev(ptr noundef nonnull align 8 dereferenceable(56) %rpt) #22
  ret void

lpad:                                             ; preds = %entry
  %6 = landingpad { ptr, i32 }
          cleanup
  br label %ehcleanup

lpad3:                                            ; preds = %invoke.cont
  %7 = landingpad { ptr, i32 }
          cleanup
  call void @_ZN3sat10simplifier19blocked_clause_elimD2Ev(ptr noundef nonnull align 8 dereferenceable(140) %elim) #22
  br label %ehcleanup

ehcleanup:                                        ; preds = %lpad3, %lpad
  %.pn = phi { ptr, i32 } [ %7, %lpad3 ], [ %6, %lpad ]
  call void @_ZN3sat10simplifier18blocked_cls_reportD2Ev(ptr noundef nonnull align 8 dereferenceable(56) %rpt) #22
  resume { ptr, i32 } %.pn
}